target datalayout = "e-m:e-p270:32:32-p271:32:32-p272:64:64-i64:64-i128:128-f80:128-n8:16:32:64-S128"
target triple = "x86_64-pc-linux-gnu"

@.str.63 = private unnamed_addr constant [5 x i8] c" \09\0D\0A\00", align 1
@.str.204 = private unnamed_addr constant [5 x i8] c"npt=\00", align 1
@.str.205 = private unnamed_addr constant [2 x i8] c"-\00", align 1
@.str.206 = private unnamed_addr constant [49 x i8] c"Failed to parse interval end specification '%s'\0A\00", align 1

; Function Attrs: nounwind uwtable
define internal void @get_word_until_chars(ptr noundef %0, i32 noundef %1, ptr noundef %2, ptr noundef %3) #0 {
  %5 = alloca ptr, align 8
  %6 = alloca i32, align 4
  %7 = alloca ptr, align 8
  %8 = alloca ptr, align 8
  %9 = alloca ptr, align 8
  %10 = alloca ptr, align 8
  store ptr %0, ptr %5, align 8, !tbaa !10
  store i32 %1, ptr %6, align 4, !tbaa !12
  store ptr %2, ptr %7, align 8, !tbaa !10
  store ptr %3, ptr %8, align 8, !tbaa !4
  call void @llvm.lifetime.start.p0(i64 8, ptr %9) #13
  call void @llvm.lifetime.start.p0(i64 8, ptr %10) #13
  %11 = load ptr, ptr %8, align 8, !tbaa !4
  %12 = load ptr, ptr %11, align 8, !tbaa !10
  store ptr %12, ptr %9, align 8, !tbaa !10
  %13 = load ptr, ptr %9, align 8, !tbaa !10
  %14 = call i64 @strspn(ptr noundef %13, ptr noundef @.str.63) #12
  %15 = load ptr, ptr %9, align 8, !tbaa !10
  %16 = getelementptr inbounds nuw i8, ptr %15, i64 %14
  store ptr %16, ptr %9, align 8, !tbaa !10
  %17 = load ptr, ptr %5, align 8, !tbaa !10
  store ptr %17, ptr %10, align 8, !tbaa !10
  br label %18

18:                                               ; preds = %47, %4
  %19 = load ptr, ptr %7, align 8, !tbaa !10
  %20 = load ptr, ptr %9, align 8, !tbaa !10
  %21 = load i8, ptr %20, align 1, !tbaa !14
  %22 = sext i8 %21 to i32
  %23 = call ptr @strchr(ptr noundef %19, i32 noundef %22) #12
  %24 = icmp ne ptr %23, null
  br i1 %24, label %30, label %25

25:                                               ; preds = %18
  %26 = load ptr, ptr %9, align 8, !tbaa !10
  %27 = load i8, ptr %26, align 1, !tbaa !14
  %28 = sext i8 %27 to i32
  %29 = icmp ne i32 %28, 0
  br label %30

30:                                               ; preds = %25, %18
  %31 = phi i1 [ false, %18 ], [ %29, %25 ]
  br i1 %31, label %32, label %50

32:                                               ; preds = %30
  %33 = load ptr, ptr %10, align 8, !tbaa !10
  %34 = load ptr, ptr %5, align 8, !tbaa !10
  %35 = ptrtoint ptr %33 to i64
  %36 = ptrtoint ptr %34 to i64
  %37 = sub i64 %35, %36
  %38 = load i32, ptr %6, align 4, !tbaa !12
  %39 = sub nsw i32 %38, 1
  %40 = sext i32 %39 to i64
  %41 = icmp slt i64 %37, %40
  br i1 %41, label %42, label %47

42:                                               ; preds = %32
  %43 = load ptr, ptr %9, align 8, !tbaa !10
  %44 = load i8, ptr %43, align 1, !tbaa !14
  %45 = load ptr, ptr %10, align 8, !tbaa !10
  %46 = getelementptr inbounds nuw i8, ptr %45, i32 1
  store ptr %46, ptr %10, align 8, !tbaa !10
  store i8 %44, ptr %45, align 1, !tbaa !14
  br label %47

47:                                               ; preds = %42, %32
  %48 = load ptr, ptr %9, align 8, !tbaa !10
  %49 = getelementptr inbounds nuw i8, ptr %48, i32 1
  store ptr %49, ptr %9, align 8, !tbaa !10
  br label %18, !llvm.loop !239

50:                                               ; preds = %30
  %51 = load i32, ptr %6, align 4, !tbaa !12
  %52 = icmp sgt i32 %51, 0
  br i1 %52, label %53, label %55

53:                                               ; preds = %50
  %54 = load ptr, ptr %10, align 8, !tbaa !10
  store i8 0, ptr %54, align 1, !tbaa !14
  br label %55

55:                                               ; preds = %53, %50
  %56 = load ptr, ptr %9, align 8, !tbaa !10
  %57 = load ptr, ptr %8, align 8, !tbaa !4
  store ptr %56, ptr %57, align 8, !tbaa !10
  call void @llvm.lifetime.end.p0(i64 8, ptr %10) #13
  call void @llvm.lifetime.end.p0(i64 8, ptr %9) #13
  ret void
}

; Function Attrs: nounwind uwtable
define internal void @get_word_sep(ptr noundef %0, i32 noundef %1, ptr noundef %2, ptr noundef %3) #0 {
  %5 = alloca ptr, align 8
  %6 = alloca i32, align 4
  %7 = alloca ptr, align 8
  %8 = alloca ptr, align 8
  store ptr %0, ptr %5, align 8, !tbaa !10
  store i32 %1, ptr %6, align 4, !tbaa !12
  store ptr %2, ptr %7, align 8, !tbaa !10
  store ptr %3, ptr %8, align 8, !tbaa !4
  %9 = load ptr, ptr %8, align 8, !tbaa !4
  %10 = load ptr, ptr %9, align 8, !tbaa !10
  %11 = load i8, ptr %10, align 1, !tbaa !14
  %12 = sext i8 %11 to i32
  %13 = icmp eq i32 %12, 47
  br i1 %13, label %14, label %18

14:                                               ; preds = %4
  %15 = load ptr, ptr %8, align 8, !tbaa !4
  %16 = load ptr, ptr %15, align 8, !tbaa !10
  %17 = getelementptr inbounds nuw i8, ptr %16, i32 1
  store ptr %17, ptr %15, align 8, !tbaa !10
  br label %18

18:                                               ; preds = %14, %4
  %19 = load ptr, ptr %5, align 8, !tbaa !10
  %20 = load i32, ptr %6, align 4, !tbaa !12
  %21 = load ptr, ptr %7, align 8, !tbaa !10
  %22 = load ptr, ptr %8, align 8, !tbaa !4
  call void @get_word_until_chars(ptr noundef %19, i32 noundef %20, ptr noundef %21, ptr noundef %22)
  ret void
}

; Function Attrs: nounwind uwtable
define internal void @rtsp_parse_range_npt(ptr noundef %0, ptr noundef %1, ptr noundef %2) #0 {
  %4 = alloca ptr, align 8
  %5 = alloca ptr, align 8
  %6 = alloca ptr, align 8
  %7 = alloca [256 x i8], align 16
  %8 = alloca i32, align 4
  store ptr %0, ptr %4, align 8, !tbaa !10
  store ptr %1, ptr %5, align 8, !tbaa !161
  store ptr %2, ptr %6, align 8, !tbaa !161
  call void @llvm.lifetime.start.p0(i64 256, ptr %7) #13
  %9 = load ptr, ptr %4, align 8, !tbaa !10
  %10 = call i64 @strspn(ptr noundef %9, ptr noundef @.str.63) #12
  %11 = load ptr, ptr %4, align 8, !tbaa !10
  %12 = getelementptr inbounds nuw i8, ptr %11, i64 %10
  store ptr %12, ptr %4, align 8, !tbaa !10
  %13 = load ptr, ptr %4, align 8, !tbaa !10
  %14 = call i32 @av_stristart(ptr noundef %13, ptr noundef @.str.204, ptr noundef %4)
  %15 = icmp ne i32 %14, 0
  br i1 %15, label %17, label %16

16:                                               ; preds = %3
  store i32 1, ptr %8, align 4
  br label %43

17:                                               ; preds = %3
  %18 = load ptr, ptr %5, align 8, !tbaa !161
  store i64 -9223372036854775808, ptr %18, align 8, !tbaa !52
  %19 = load ptr, ptr %6, align 8, !tbaa !161
  store i64 -9223372036854775808, ptr %19, align 8, !tbaa !52
  %20 = getelementptr inbounds [256 x i8], ptr %7, i64 0, i64 0
  call void @get_word_sep(ptr noundef %20, i32 noundef 256, ptr noundef @.str.205, ptr noundef %4)
  %21 = load ptr, ptr %5, align 8, !tbaa !161
  %22 = getelementptr inbounds [256 x i8], ptr %7, i64 0, i64 0
  %23 = call i32 @av_parse_time(ptr noundef %21, ptr noundef %22, i32 noundef 1)
  %24 = icmp slt i32 %23, 0
  br i1 %24, label %25, label %26

25:                                               ; preds = %17
  store i32 1, ptr %8, align 4
  br label %43

26:                                               ; preds = %17
  %27 = load ptr, ptr %4, align 8, !tbaa !10
  %28 = load i8, ptr %27, align 1, !tbaa !14
  %29 = sext i8 %28 to i32
  %30 = icmp eq i32 %29, 45
  br i1 %30, label %31, label %42

31:                                               ; preds = %26
  %32 = load ptr, ptr %4, align 8, !tbaa !10
  %33 = getelementptr inbounds nuw i8, ptr %32, i32 1
  store ptr %33, ptr %4, align 8, !tbaa !10
  %34 = getelementptr inbounds [256 x i8], ptr %7, i64 0, i64 0
  call void @get_word_sep(ptr noundef %34, i32 noundef 256, ptr noundef @.str.205, ptr noundef %4)
  %35 = load ptr, ptr %6, align 8, !tbaa !161
  %36 = getelementptr inbounds [256 x i8], ptr %7, i64 0, i64 0
  %37 = call i32 @av_parse_time(ptr noundef %35, ptr noundef %36, i32 noundef 1)
  %38 = icmp slt i32 %37, 0
  br i1 %38, label %39, label %41

39:                                               ; preds = %31
  %40 = getelementptr inbounds [256 x i8], ptr %7, i64 0, i64 0
  call void (ptr, i32, ptr, ...) @av_log(ptr noundef null, i32 noundef 48, ptr noundef @.str.206, ptr noundef %40)
  br label %41

41:                                               ; preds = %39, %31
  br label %42

42:                                               ; preds = %41, %26
  store i32 0, ptr %8, align 4
  br label %43

43:                                               ; preds = %42, %25, %16
  call void @llvm.lifetime.end.p0(i64 256, ptr %7) #13
  %44 = load i32, ptr %8, align 4
  switch i32 %44, label %46 [
    i32 0, label %45
    i32 1, label %45
  ]

45:                                               ; preds = %43, %43
  ret void

46:                                               ; preds = %43
  unreachable
}