; Function Attrs: nounwind uwtable
define internal fastcc void @rtsp_parse_range_npt(ptr noundef %0, ptr noundef %1, ptr noundef %2) unnamed_addr #2 {
  %4 = alloca ptr, align 8
  %5 = alloca [256 x i8], align 16
  call void @llvm.lifetime.start.p0(i64 256, ptr nonnull %5) #15
  %6 = tail call i64 @strspn(ptr noundef %0, ptr noundef nonnull @.str.63) #14
  %7 = getelementptr inbounds nuw i8, ptr %0, i64 %6
  store ptr %7, ptr %4, align 8, !tbaa !4
  %8 = call i32 @av_stristart(ptr noundef %7, ptr noundef nonnull @.str.204, ptr noundef nonnull %4) #15
  %.not = icmp eq i32 %8, 0
  br i1 %.not, label %62, label %9

9:                                                ; preds = %3
  store i64 -9223372036854775808, ptr %1, align 8, !tbaa !45
  store i64 -9223372036854775808, ptr %2, align 8, !tbaa !45
  %10 = load ptr, ptr %4, align 8, !tbaa !4
  %11 = load i8, ptr %10, align 1, !tbaa !9
  %12 = icmp eq i8 %11, 47
  br i1 %12, label %13, label %15

13:                                               ; preds = %9
  %14 = getelementptr inbounds nuw i8, ptr %10, i64 1
  store ptr %14, ptr %4, align 8, !tbaa !4
  br label %15

15:                                               ; preds = %13, %9
  %16 = phi ptr [ %14, %13 ], [ %10, %9 ]
  %17 = call i64 @strspn(ptr noundef nonnull %16, ptr noundef nonnull @.str.63) #14
  %18 = getelementptr inbounds nuw i8, ptr %16, i64 %17
  %19 = load i8, ptr %18, align 1, !tbaa !9
  switch i8 %19, label %.lr.ph.i.i [
    i8 45, label %get_word_sep.exit
    i8 0, label %get_word_sep.exit
  ]

.lr.ph.i.i:                                       ; preds = %15
  %20 = ptrtoint ptr %5 to i64
  br label %21

21:                                               ; preds = %28, %.lr.ph.i.i
  %22 = phi i8 [ %19, %.lr.ph.i.i ], [ %30, %28 ]
  %.022.i.i = phi ptr [ %5, %.lr.ph.i.i ], [ %.1.i.i, %28 ]
  %.01621.i.i = phi ptr [ %18, %.lr.ph.i.i ], [ %29, %28 ]
  %23 = ptrtoint ptr %.022.i.i to i64
  %24 = sub i64 %23, %20
  %25 = icmp slt i64 %24, 255
  br i1 %25, label %26, label %28

26:                                               ; preds = %21
  %27 = getelementptr inbounds nuw i8, ptr %.022.i.i, i64 1
  store i8 %22, ptr %.022.i.i, align 1, !tbaa !9
  br label %28

28:                                               ; preds = %26, %21
  %.1.i.i = phi ptr [ %27, %26 ], [ %.022.i.i, %21 ]
  %29 = getelementptr inbounds nuw i8, ptr %.01621.i.i, i64 1
  %30 = load i8, ptr %29, align 1, !tbaa !9
  switch i8 %30, label %21 [
    i8 45, label %get_word_sep.exit
    i8 0, label %get_word_sep.exit
  ]

get_word_sep.exit:                                ; preds = %28, %28, %15, %15
  %.016.lcssa.i.i = phi ptr [ %18, %15 ], [ %18, %15 ], [ %29, %28 ], [ %29, %28 ]
  %.0.lcssa.i.i = phi ptr [ %5, %15 ], [ %5, %15 ], [ %.1.i.i, %28 ], [ %.1.i.i, %28 ]
  store i8 0, ptr %.0.lcssa.i.i, align 1, !tbaa !9
  store ptr %.016.lcssa.i.i, ptr %4, align 8, !tbaa !4
  %31 = call i32 @av_parse_time(ptr noundef nonnull %1, ptr noundef nonnull %5, i32 noundef 1) #15
  %32 = icmp slt i32 %31, 0
  br i1 %32, label %62, label %33

33:                                               ; preds = %get_word_sep.exit
  %34 = load ptr, ptr %4, align 8, !tbaa !4
  %35 = load i8, ptr %34, align 1, !tbaa !9
  %36 = icmp eq i8 %35, 45
  br i1 %36, label %37, label %62

37:                                               ; preds = %33
  %38 = getelementptr inbounds nuw i8, ptr %34, i64 1
  store ptr %38, ptr %4, align 8, !tbaa !4
  %39 = load i8, ptr %38, align 1, !tbaa !9
  %40 = icmp eq i8 %39, 47
  br i1 %40, label %41, label %43

41:                                               ; preds = %37
  %42 = getelementptr inbounds nuw i8, ptr %34, i64 2
  store ptr %42, ptr %4, align 8, !tbaa !4
  br label %43

43:                                               ; preds = %41, %37
  %44 = phi ptr [ %42, %41 ], [ %38, %37 ]
  %45 = call i64 @strspn(ptr noundef nonnull %44, ptr noundef nonnull @.str.63) #14
  %46 = getelementptr inbounds nuw i8, ptr %44, i64 %45
  %47 = load i8, ptr %46, align 1, !tbaa !9
  switch i8 %47, label %.lr.ph.i.i7 [
    i8 45, label %get_word_sep.exit16
    i8 0, label %get_word_sep.exit16
  ]

.lr.ph.i.i7:                                      ; preds = %43
  %48 = ptrtoint ptr %5 to i64
  br label %49

49:                                               ; preds = %56, %.lr.ph.i.i7
  %50 = phi i8 [ %47, %.lr.ph.i.i7 ], [ %58, %56 ]
  %.022.i.i8 = phi ptr [ %5, %.lr.ph.i.i7 ], [ %.1.i.i10, %56 ]
  %.01621.i.i9 = phi ptr [ %46, %.lr.ph.i.i7 ], [ %57, %56 ]
  %51 = ptrtoint ptr %.022.i.i8 to i64
  %52 = sub i64 %51, %48
  %53 = icmp slt i64 %52, 255
  br i1 %53, label %54, label %56

54:                                               ; preds = %49
  %55 = getelementptr inbounds nuw i8, ptr %.022.i.i8, i64 1
  store i8 %50, ptr %.022.i.i8, align 1, !tbaa !9
  br label %56

56:                                               ; preds = %54, %49
  %.1.i.i10 = phi ptr [ %55, %54 ], [ %.022.i.i8, %49 ]
  %57 = getelementptr inbounds nuw i8, ptr %.01621.i.i9, i64 1
  %58 = load i8, ptr %57, align 1, !tbaa !9
  switch i8 %58, label %49 [
    i8 45, label %get_word_sep.exit16
    i8 0, label %get_word_sep.exit16
  ]

get_word_sep.exit16:                              ; preds = %56, %56, %43, %43
  %.016.lcssa.i.i14 = phi ptr [ %46, %43 ], [ %46, %43 ], [ %57, %56 ], [ %57, %56 ]
  %.0.lcssa.i.i15 = phi ptr [ %5, %43 ], [ %5, %43 ], [ %.1.i.i10, %56 ], [ %.1.i.i10, %56 ]
  store i8 0, ptr %.0.lcssa.i.i15, align 1, !tbaa !9
  store ptr %.016.lcssa.i.i14, ptr %4, align 8, !tbaa !4
  %59 = call i32 @av_parse_time(ptr noundef nonnull %2, ptr noundef nonnull %5, i32 noundef 1) #15
  %60 = icmp slt i32 %59, 0
  br i1 %60, label %61, label %62

61:                                               ; preds = %get_word_sep.exit16
  call void (ptr, i32, ptr, ...) @av_log(ptr noundef null, i32 noundef 48, ptr noundef nonnull @.str.206, ptr noundef nonnull %5) #15
  br label %62

62:                                               ; preds = %33, %61, %get_word_sep.exit16, %get_word_sep.exit, %3
  call void @llvm.lifetime.end.p0(i64 256, ptr nonnull %5) #15
  ret void
}